target datalayout = "e-m:e-p270:32:32-p271:32:32-p272:64:64-i64:64-i128:128-f80:128-n8:16:32:64-S128"
target triple = "x86_64-pc-linux-gnu"

%struct.AVFilterContext = type { ptr, ptr, ptr, ptr, ptr, i32, ptr, ptr, i32, ptr, ptr, i32, i32, ptr, ptr, ptr, ptr, i32, ptr, i32, i32 }
%struct.AudioIIRContext = type { ptr, ptr, ptr, ptr, double, double, double, i32, i32, i32, i32, i32, i32, i32, i32, %struct.AVRational, ptr, ptr, i32, i32, ptr }
%struct.AVRational = type { i32, i32 }
%struct.IIRChannel = type { [2 x i32], [2 x ptr], double, [2 x ptr], double, ptr, i32 }
%struct.ThreadData = type { ptr, ptr }
%struct.AVChannelLayout = type { i32, i32, %union.anon.1, ptr }
%union.anon.1 = type { i64 }
%struct.AVFrame = type { [8 x ptr], [8 x i32], ptr, i32, i32, i32, i32, i32, %struct.AVRational, i64, i64, %struct.AVRational, i32, ptr, i32, i32, [8 x ptr], ptr, i32, ptr, i32, i32, i32, i32, i32, i32, i32, i64, ptr, i32, ptr, ptr, i64, i64, i64, i64, ptr, %struct.AVChannelLayout, i64 }

; Function Attrs: nounwind uwtable
define internal i32 @iir_ch_lattice_dblp(ptr noundef %0, ptr noundef %1, i32 noundef %2, i32 noundef %3) #1 {
  %5 = alloca ptr, align 8
  %6 = alloca ptr, align 8
  %7 = alloca i32, align 4
  %8 = alloca i32, align 4
  %9 = alloca ptr, align 8
  %10 = alloca double, align 8
  %11 = alloca double, align 8
  %12 = alloca double, align 8
  %13 = alloca ptr, align 8
  %14 = alloca ptr, align 8
  %15 = alloca ptr, align 8
  %16 = alloca ptr, align 8
  %17 = alloca double, align 8
  %18 = alloca double, align 8
  %19 = alloca double, align 8
  %20 = alloca ptr, align 8
  %21 = alloca i32, align 4
  %22 = alloca ptr, align 8
  %23 = alloca ptr, align 8
  %24 = alloca double, align 8
  %25 = alloca ptr, align 8
  %26 = alloca ptr, align 8
  %27 = alloca i32, align 4
  %28 = alloca double, align 8
  %29 = alloca double, align 8
  %30 = alloca i32, align 4
  store ptr %0, ptr %5, align 8, !tbaa !4
  store ptr %1, ptr %6, align 8, !tbaa !45
  store i32 %2, ptr %7, align 4, !tbaa !43
  store i32 %3, ptr %8, align 4, !tbaa !43
  call void @llvm.lifetime.start.p0(i64 8, ptr %9) #12
  %31 = load ptr, ptr %5, align 8, !tbaa !4
  %32 = getelementptr inbounds nuw %struct.AVFilterContext, ptr %31, i32 0, i32 9
  %33 = load ptr, ptr %32, align 8, !tbaa !9
  store ptr %33, ptr %9, align 8, !tbaa !22
  call void @llvm.lifetime.start.p0(i64 8, ptr %10) #12
  %34 = load ptr, ptr %9, align 8, !tbaa !22
  %35 = getelementptr inbounds nuw %struct.AudioIIRContext, ptr %34, i32 0, i32 4
  %36 = load double, ptr %35, align 8, !tbaa !153
  store double %36, ptr %10, align 8, !tbaa !95
  call void @llvm.lifetime.start.p0(i64 8, ptr %11) #12
  %37 = load ptr, ptr %9, align 8, !tbaa !22
  %38 = getelementptr inbounds nuw %struct.AudioIIRContext, ptr %37, i32 0, i32 5
  %39 = load double, ptr %38, align 8, !tbaa !154
  store double %39, ptr %11, align 8, !tbaa !95
  call void @llvm.lifetime.start.p0(i64 8, ptr %12) #12
  %40 = load ptr, ptr %9, align 8, !tbaa !22
  %41 = getelementptr inbounds nuw %struct.AudioIIRContext, ptr %40, i32 0, i32 6
  %42 = load double, ptr %41, align 8, !tbaa !155
  store double %42, ptr %12, align 8, !tbaa !95
  call void @llvm.lifetime.start.p0(i64 8, ptr %13) #12
  %43 = load ptr, ptr %6, align 8, !tbaa !45
  store ptr %43, ptr %13, align 8, !tbaa !156
  call void @llvm.lifetime.start.p0(i64 8, ptr %14) #12
  %44 = load ptr, ptr %13, align 8, !tbaa !156
  %45 = getelementptr inbounds nuw %struct.ThreadData, ptr %44, i32 0, i32 0
  %46 = load ptr, ptr %45, align 8, !tbaa !75
  store ptr %46, ptr %14, align 8, !tbaa !60
  call void @llvm.lifetime.start.p0(i64 8, ptr %15) #12
  %47 = load ptr, ptr %13, align 8, !tbaa !156
  %48 = getelementptr inbounds nuw %struct.ThreadData, ptr %47, i32 0, i32 1
  %49 = load ptr, ptr %48, align 8, !tbaa !77
  store ptr %49, ptr %15, align 8, !tbaa !60
  call void @llvm.lifetime.start.p0(i64 8, ptr %16) #12
  %50 = load ptr, ptr %14, align 8, !tbaa !60
  %51 = getelementptr inbounds nuw %struct.AVFrame, ptr %50, i32 0, i32 2
  %52 = load ptr, ptr %51, align 8, !tbaa !158
  %53 = load i32, ptr %7, align 4, !tbaa !43
  %54 = sext i32 %53 to i64
  %55 = getelementptr inbounds ptr, ptr %52, i64 %54
  %56 = load ptr, ptr %55, align 8, !tbaa !42
  store ptr %56, ptr %16, align 8, !tbaa !94
  call void @llvm.lifetime.start.p0(i64 8, ptr %17) #12
  call void @llvm.lifetime.start.p0(i64 8, ptr %18) #12
  call void @llvm.lifetime.start.p0(i64 8, ptr %19) #12
  call void @llvm.lifetime.start.p0(i64 8, ptr %20) #12
  %57 = load ptr, ptr %9, align 8, !tbaa !22
  %58 = getelementptr inbounds nuw %struct.AudioIIRContext, ptr %57, i32 0, i32 17
  %59 = load ptr, ptr %58, align 8, !tbaa !47
  %60 = load i32, ptr %7, align 4, !tbaa !43
  %61 = sext i32 %60 to i64
  %62 = getelementptr inbounds %struct.IIRChannel, ptr %59, i64 %61
  %63 = getelementptr inbounds nuw %struct.IIRChannel, ptr %62, i32 0, i32 3
  %64 = getelementptr inbounds [2 x ptr], ptr %63, i64 0, i64 0
  %65 = load ptr, ptr %64, align 8, !tbaa !94
  store ptr %65, ptr %20, align 8, !tbaa !94
  call void @llvm.lifetime.start.p0(i64 4, ptr %21) #12
  %66 = load ptr, ptr %9, align 8, !tbaa !22
  %67 = getelementptr inbounds nuw %struct.AudioIIRContext, ptr %66, i32 0, i32 17
  %68 = load ptr, ptr %67, align 8, !tbaa !47
  %69 = load i32, ptr %7, align 4, !tbaa !43
  %70 = sext i32 %69 to i64
  %71 = getelementptr inbounds %struct.IIRChannel, ptr %68, i64 %70
  %72 = getelementptr inbounds nuw %struct.IIRChannel, ptr %71, i32 0, i32 0
  %73 = getelementptr inbounds [2 x i32], ptr %72, i64 0, i64 1
  %74 = load i32, ptr %73, align 4, !tbaa !43
  store i32 %74, ptr %21, align 4, !tbaa !43
  call void @llvm.lifetime.start.p0(i64 8, ptr %22) #12
  %75 = load ptr, ptr %9, align 8, !tbaa !22
  %76 = getelementptr inbounds nuw %struct.AudioIIRContext, ptr %75, i32 0, i32 17
  %77 = load ptr, ptr %76, align 8, !tbaa !47
  %78 = load i32, ptr %7, align 4, !tbaa !43
  %79 = sext i32 %78 to i64
  %80 = getelementptr inbounds %struct.IIRChannel, ptr %77, i64 %79
  %81 = getelementptr inbounds nuw %struct.IIRChannel, ptr %80, i32 0, i32 1
  %82 = getelementptr inbounds [2 x ptr], ptr %81, i64 0, i64 0
  %83 = load ptr, ptr %82, align 8, !tbaa !94
  store ptr %83, ptr %22, align 8, !tbaa !94
  call void @llvm.lifetime.start.p0(i64 8, ptr %23) #12
  %84 = load ptr, ptr %9, align 8, !tbaa !22
  %85 = getelementptr inbounds nuw %struct.AudioIIRContext, ptr %84, i32 0, i32 17
  %86 = load ptr, ptr %85, align 8, !tbaa !47
  %87 = load i32, ptr %7, align 4, !tbaa !43
  %88 = sext i32 %87 to i64
  %89 = getelementptr inbounds %struct.IIRChannel, ptr %86, i64 %88
  %90 = getelementptr inbounds nuw %struct.IIRChannel, ptr %89, i32 0, i32 1
  %91 = getelementptr inbounds [2 x ptr], ptr %90, i64 0, i64 1
  %92 = load ptr, ptr %91, align 8, !tbaa !94
  store ptr %92, ptr %23, align 8, !tbaa !94
  call void @llvm.lifetime.start.p0(i64 8, ptr %24) #12
  %93 = load ptr, ptr %9, align 8, !tbaa !22
  %94 = getelementptr inbounds nuw %struct.AudioIIRContext, ptr %93, i32 0, i32 17
  %95 = load ptr, ptr %94, align 8, !tbaa !47
  %96 = load i32, ptr %7, align 4, !tbaa !43
  %97 = sext i32 %96 to i64
  %98 = getelementptr inbounds %struct.IIRChannel, ptr %95, i64 %97
  %99 = getelementptr inbounds nuw %struct.IIRChannel, ptr %98, i32 0, i32 2
  %100 = load double, ptr %99, align 8, !tbaa !97
  store double %100, ptr %24, align 8, !tbaa !95
  call void @llvm.lifetime.start.p0(i64 8, ptr %25) #12
  %101 = load ptr, ptr %9, align 8, !tbaa !22
  %102 = getelementptr inbounds nuw %struct.AudioIIRContext, ptr %101, i32 0, i32 17
  %103 = load ptr, ptr %102, align 8, !tbaa !47
  %104 = load i32, ptr %7, align 4, !tbaa !43
  %105 = sext i32 %104 to i64
  %106 = getelementptr inbounds %struct.IIRChannel, ptr %103, i64 %105
  %107 = getelementptr inbounds nuw %struct.IIRChannel, ptr %106, i32 0, i32 6
  store ptr %107, ptr %25, align 8, !tbaa !159
  call void @llvm.lifetime.start.p0(i64 8, ptr %26) #12
  %108 = load ptr, ptr %15, align 8, !tbaa !60
  %109 = getelementptr inbounds nuw %struct.AVFrame, ptr %108, i32 0, i32 2
  %110 = load ptr, ptr %109, align 8, !tbaa !158
  %111 = load i32, ptr %7, align 4, !tbaa !43
  %112 = sext i32 %111 to i64
  %113 = getelementptr inbounds ptr, ptr %110, i64 %112
  %114 = load ptr, ptr %113, align 8, !tbaa !42
  store ptr %114, ptr %26, align 8, !tbaa !94
  call void @llvm.lifetime.start.p0(i64 4, ptr %27) #12
  store i32 0, ptr %27, align 4, !tbaa !43
  br label %115

115:                                              ; preds = %214, %4
  %116 = load i32, ptr %27, align 4, !tbaa !43
  %117 = load ptr, ptr %14, align 8, !tbaa !60
  %118 = getelementptr inbounds nuw %struct.AVFrame, ptr %117, i32 0, i32 5
  %119 = load i32, ptr %118, align 8, !tbaa !69
  %120 = icmp slt i32 %116, %119
  br i1 %120, label %121, label %217

121:                                              ; preds = %115
  call void @llvm.lifetime.start.p0(i64 8, ptr %28) #12
  %122 = load ptr, ptr %16, align 8, !tbaa !94
  %123 = load i32, ptr %27, align 4, !tbaa !43
  %124 = sext i32 %123 to i64
  %125 = getelementptr inbounds double, ptr %122, i64 %124
  %126 = load double, ptr %125, align 8, !tbaa !95
  %127 = load double, ptr %10, align 8, !tbaa !95
  %128 = fmul nsz double %126, %127
  store double %128, ptr %28, align 8, !tbaa !95
  call void @llvm.lifetime.start.p0(i64 8, ptr %29) #12
  store double 0.000000e+00, ptr %29, align 8, !tbaa !95
  %129 = load double, ptr %28, align 8, !tbaa !95
  store double %129, ptr %18, align 8, !tbaa !95
  call void @llvm.lifetime.start.p0(i64 4, ptr %30) #12
  %130 = load i32, ptr %21, align 4, !tbaa !43
  %131 = sub nsw i32 %130, 1
  store i32 %131, ptr %30, align 4, !tbaa !43
  br label %132

132:                                              ; preds = %177, %121
  %133 = load i32, ptr %30, align 4, !tbaa !43
  %134 = icmp sge i32 %133, 0
  br i1 %134, label %136, label %135

135:                                              ; preds = %132
  call void @llvm.lifetime.end.p0(i64 4, ptr %30) #12
  br label %180

136:                                              ; preds = %132
  %137 = load double, ptr %18, align 8, !tbaa !95
  %138 = load ptr, ptr %23, align 8, !tbaa !94
  %139 = load i32, ptr %30, align 4, !tbaa !43
  %140 = sext i32 %139 to i64
  %141 = getelementptr inbounds double, ptr %138, i64 %140
  %142 = load double, ptr %141, align 8, !tbaa !95
  %143 = load ptr, ptr %20, align 8, !tbaa !94
  %144 = load i32, ptr %30, align 4, !tbaa !43
  %145 = sext i32 %144 to i64
  %146 = getelementptr inbounds double, ptr %143, i64 %145
  %147 = load double, ptr %146, align 8, !tbaa !95
  %148 = fneg nsz double %142
  %149 = call nsz double @llvm.fmuladd.f64(double %148, double %147, double %137)
  store double %149, ptr %17, align 8, !tbaa !95
  %150 = load double, ptr %17, align 8, !tbaa !95
  %151 = load ptr, ptr %23, align 8, !tbaa !94
  %152 = load i32, ptr %30, align 4, !tbaa !43
  %153 = sext i32 %152 to i64
  %154 = getelementptr inbounds double, ptr %151, i64 %153
  %155 = load double, ptr %154, align 8, !tbaa !95
  %156 = load ptr, ptr %20, align 8, !tbaa !94
  %157 = load i32, ptr %30, align 4, !tbaa !43
  %158 = sext i32 %157 to i64
  %159 = getelementptr inbounds double, ptr %156, i64 %158
  %160 = load double, ptr %159, align 8, !tbaa !95
  %161 = call nsz double @llvm.fmuladd.f64(double %150, double %155, double %160)
  store double %161, ptr %19, align 8, !tbaa !95
  %162 = load double, ptr %19, align 8, !tbaa !95
  %163 = load ptr, ptr %22, align 8, !tbaa !94
  %164 = load i32, ptr %30, align 4, !tbaa !43
  %165 = add nsw i32 %164, 1
  %166 = sext i32 %165 to i64
  %167 = getelementptr inbounds double, ptr %163, i64 %166
  %168 = load double, ptr %167, align 8, !tbaa !95
  %169 = load double, ptr %29, align 8, !tbaa !95
  %170 = call nsz double @llvm.fmuladd.f64(double %162, double %168, double %169)
  store double %170, ptr %29, align 8, !tbaa !95
  %171 = load double, ptr %19, align 8, !tbaa !95
  %172 = load ptr, ptr %20, align 8, !tbaa !94
  %173 = load i32, ptr %30, align 4, !tbaa !43
  %174 = sext i32 %173 to i64
  %175 = getelementptr inbounds double, ptr %172, i64 %174
  store double %171, ptr %175, align 8, !tbaa !95
  %176 = load double, ptr %17, align 8, !tbaa !95
  store double %176, ptr %18, align 8, !tbaa !95
  br label %177

177:                                              ; preds = %136
  %178 = load i32, ptr %30, align 4, !tbaa !43
  %179 = add nsw i32 %178, -1
  store i32 %179, ptr %30, align 4, !tbaa !43
  br label %132, !llvm.loop !204

180:                                              ; preds = %135
  %181 = load double, ptr %18, align 8, !tbaa !95
  %182 = load ptr, ptr %22, align 8, !tbaa !94
  %183 = getelementptr inbounds double, ptr %182, i64 0
  %184 = load double, ptr %183, align 8, !tbaa !95
  %185 = load double, ptr %29, align 8, !tbaa !95
  %186 = call nsz double @llvm.fmuladd.f64(double %181, double %184, double %185)
  store double %186, ptr %29, align 8, !tbaa !95
  %187 = load ptr, ptr %20, align 8, !tbaa !94
  %188 = getelementptr inbounds double, ptr %187, i64 1
  %189 = load ptr, ptr %20, align 8, !tbaa !94
  %190 = getelementptr inbounds double, ptr %189, i64 0
  %191 = load i32, ptr %21, align 4, !tbaa !43
  %192 = sext i32 %191 to i64
  %193 = mul i64 %192, 8
  call void @llvm.memmove.p0.p0.i64(ptr align 8 %188, ptr align 8 %190, i64 %193, i1 false)
  %194 = load double, ptr %18, align 8, !tbaa !95
  %195 = load ptr, ptr %20, align 8, !tbaa !94
  %196 = getelementptr inbounds double, ptr %195, i64 0
  store double %194, ptr %196, align 8, !tbaa !95
  %197 = load double, ptr %11, align 8, !tbaa !95
  %198 = load double, ptr %24, align 8, !tbaa !95
  %199 = fmul nsz double %197, %198
  %200 = load double, ptr %29, align 8, !tbaa !95
  %201 = fmul nsz double %200, %199
  store double %201, ptr %29, align 8, !tbaa !95
  %202 = load double, ptr %29, align 8, !tbaa !95
  %203 = load double, ptr %12, align 8, !tbaa !95
  %204 = load double, ptr %28, align 8, !tbaa !95
  %205 = load double, ptr %12, align 8, !tbaa !95
  %206 = fsub nsz double 1.000000e+00, %205
  %207 = fmul nsz double %204, %206
  %208 = call nsz double @llvm.fmuladd.f64(double %202, double %203, double %207)
  store double %208, ptr %29, align 8, !tbaa !95
  %209 = load double, ptr %29, align 8, !tbaa !95
  %210 = load ptr, ptr %26, align 8, !tbaa !94
  %211 = load i32, ptr %27, align 4, !tbaa !43
  %212 = sext i32 %211 to i64
  %213 = getelementptr inbounds double, ptr %210, i64 %212
  store double %209, ptr %213, align 8, !tbaa !95
  call void @llvm.lifetime.end.p0(i64 8, ptr %29) #12
  call void @llvm.lifetime.end.p0(i64 8, ptr %28) #12
  br label %214

214:                                              ; preds = %180
  %215 = load i32, ptr %27, align 4, !tbaa !43
  %216 = add nsw i32 %215, 1
  store i32 %216, ptr %27, align 4, !tbaa !43
  br label %115, !llvm.loop !205

217:                                              ; preds = %115
  call void @llvm.lifetime.end.p0(i64 4, ptr %27) #12
  call void @llvm.lifetime.end.p0(i64 8, ptr %26) #12
  call void @llvm.lifetime.end.p0(i64 8, ptr %25) #12
  call void @llvm.lifetime.end.p0(i64 8, ptr %24) #12
  call void @llvm.lifetime.end.p0(i64 8, ptr %23) #12
  call void @llvm.lifetime.end.p0(i64 8, ptr %22) #12
  call void @llvm.lifetime.end.p0(i64 4, ptr %21) #12
  call void @llvm.lifetime.end.p0(i64 8, ptr %20) #12
  call void @llvm.lifetime.end.p0(i64 8, ptr %19) #12
  call void @llvm.lifetime.end.p0(i64 8, ptr %18) #12
  call void @llvm.lifetime.end.p0(i64 8, ptr %17) #12
  call void @llvm.lifetime.end.p0(i64 8, ptr %16) #12
  call void @llvm.lifetime.end.p0(i64 8, ptr %15) #12
  call void @llvm.lifetime.end.p0(i64 8, ptr %14) #12
  call void @llvm.lifetime.end.p0(i64 8, ptr %13) #12
  call void @llvm.lifetime.end.p0(i64 8, ptr %12) #12
  call void @llvm.lifetime.end.p0(i64 8, ptr %11) #12
  call void @llvm.lifetime.end.p0(i64 8, ptr %10) #12
  call void @llvm.lifetime.end.p0(i64 8, ptr %9) #12
  ret i32 0
}