; Function Attrs: nofree norecurse nosync nounwind memory(readwrite, inaccessiblemem: none) uwtable
define internal noundef i32 @iir_ch_lattice_dblp(ptr noundef readonly captures(none) %0, ptr noundef readonly captures(none) %1, i32 noundef %2, i32 %3) #8 {
  %5 = getelementptr inbounds nuw i8, ptr %0, i64 72
  %6 = load ptr, ptr %5, align 8, !tbaa !4
  %7 = getelementptr inbounds nuw i8, ptr %6, i64 32
  %8 = load double, ptr %7, align 8, !tbaa !151
  %9 = getelementptr inbounds nuw i8, ptr %6, i64 48
  %10 = load double, ptr %9, align 8, !tbaa !152
  %11 = load ptr, ptr %1, align 8, !tbaa !59
  %12 = getelementptr inbounds nuw i8, ptr %1, i64 8
  %13 = load ptr, ptr %12, align 8, !tbaa !61
  %14 = getelementptr inbounds nuw i8, ptr %11, i64 96
  %15 = load ptr, ptr %14, align 8, !tbaa !153
  %16 = sext i32 %2 to i64
  %17 = getelementptr inbounds ptr, ptr %15, i64 %16
  %18 = load ptr, ptr %17, align 8, !tbaa !30
  %19 = getelementptr inbounds nuw i8, ptr %6, i64 104
  %20 = load ptr, ptr %19, align 8, !tbaa !34
  %21 = getelementptr inbounds %struct.IIRChannel, ptr %20, i64 %16
  %22 = getelementptr inbounds nuw i8, ptr %21, i64 32
  %23 = load ptr, ptr %22, align 8, !tbaa !74
  %24 = getelementptr inbounds nuw i8, ptr %21, i64 4
  %25 = load i32, ptr %24, align 4, !tbaa !31
  %26 = getelementptr inbounds nuw i8, ptr %21, i64 8
  %27 = load ptr, ptr %26, align 8, !tbaa !74
  %28 = getelementptr inbounds nuw i8, ptr %21, i64 16
  %29 = load ptr, ptr %28, align 8, !tbaa !74
  %30 = getelementptr inbounds nuw i8, ptr %13, i64 96
  %31 = load ptr, ptr %30, align 8, !tbaa !153
  %32 = getelementptr inbounds ptr, ptr %31, i64 %16
  %33 = load ptr, ptr %32, align 8, !tbaa !30
  %34 = getelementptr inbounds nuw i8, ptr %11, i64 112
  %35 = load i32, ptr %34, align 8, !tbaa !53
  %36 = icmp sgt i32 %35, 0
  br i1 %36, label %.lr.ph77, label %._crit_edge78

.lr.ph77:                                         ; preds = %4
  %37 = getelementptr inbounds nuw i8, ptr %21, i64 24
  %38 = load double, ptr %37, align 8, !tbaa !100
  %39 = getelementptr inbounds nuw i8, ptr %6, i64 40
  %40 = load double, ptr %39, align 8, !tbaa !154
  %41 = icmp sgt i32 %25, 0
  %42 = getelementptr inbounds nuw i8, ptr %23, i64 8
  %43 = sext i32 %25 to i64
  %44 = shl nsw i64 %43, 3
  %45 = fmul nsz double %40, %38
  %46 = fsub nsz double 1.000000e+00, %10
  br i1 %41, label %.lr.ph.us.preheader, label %.lr.ph77.split

.lr.ph.us.preheader:                              ; preds = %.lr.ph77
  %47 = zext nneg i32 %25 to i64
  br label %.lr.ph.us

.lr.ph.us:                                        ; preds = %.lr.ph.us.preheader, %._crit_edge.us
  %indvars.iv85 = phi i64 [ 0, %.lr.ph.us.preheader ], [ %indvars.iv.next86, %._crit_edge.us ]
  %48 = getelementptr inbounds nuw double, ptr %18, i64 %indvars.iv85
  %49 = load double, ptr %48, align 8, !tbaa !75
  %50 = fmul nsz double %8, %49
  br label %51

51:                                               ; preds = %.lr.ph.us, %51
  %indvars.iv82 = phi i64 [ %47, %.lr.ph.us ], [ %indvars.iv.next83, %51 ]
  %.06872.us = phi double [ 0.000000e+00, %.lr.ph.us ], [ %61, %51 ]
  %.06971.us = phi double [ %50, %.lr.ph.us ], [ %57, %51 ]
  %indvars.iv.next83 = add nsw i64 %indvars.iv82, -1
  %52 = getelementptr inbounds nuw double, ptr %29, i64 %indvars.iv.next83
  %53 = load double, ptr %52, align 8, !tbaa !75
  %54 = getelementptr inbounds nuw double, ptr %23, i64 %indvars.iv.next83
  %55 = load double, ptr %54, align 8, !tbaa !75
  %56 = fneg nsz double %53
  %57 = tail call nsz double @llvm.fmuladd.f64(double %56, double %55, double %.06971.us)
  %58 = tail call nsz double @llvm.fmuladd.f64(double %57, double %53, double %55)
  %59 = getelementptr inbounds nuw double, ptr %27, i64 %indvars.iv82
  %60 = load double, ptr %59, align 8, !tbaa !75
  %61 = tail call nsz double @llvm.fmuladd.f64(double %58, double %60, double %.06872.us)
  store double %58, ptr %54, align 8, !tbaa !75
  %62 = icmp sgt i64 %indvars.iv82, 1
  br i1 %62, label %51, label %._crit_edge.us, !llvm.loop !199

._crit_edge.us:                                   ; preds = %51
  %63 = load double, ptr %27, align 8, !tbaa !75
  %64 = tail call nsz double @llvm.fmuladd.f64(double %57, double %63, double %61)
  tail call void @llvm.memmove.p0.p0.i64(ptr nonnull align 8 %42, ptr nonnull align 8 %23, i64 %44, i1 false)
  store double %57, ptr %23, align 8, !tbaa !75
  %65 = fmul nsz double %45, %64
  %66 = fmul nsz double %46, %50
  %67 = tail call nsz double @llvm.fmuladd.f64(double %65, double %10, double %66)
  %68 = getelementptr inbounds nuw double, ptr %33, i64 %indvars.iv85
  store double %67, ptr %68, align 8, !tbaa !75
  %indvars.iv.next86 = add nuw nsw i64 %indvars.iv85, 1
  %69 = load i32, ptr %34, align 8, !tbaa !53
  %70 = sext i32 %69 to i64
  %71 = icmp slt i64 %indvars.iv.next86, %70
  br i1 %71, label %.lr.ph.us, label %._crit_edge78, !llvm.loop !200

.lr.ph77.split:                                   ; preds = %.lr.ph77, %.lr.ph77.split
  %indvars.iv = phi i64 [ %indvars.iv.next, %.lr.ph77.split ], [ 0, %.lr.ph77 ]
  %72 = getelementptr inbounds nuw double, ptr %18, i64 %indvars.iv
  %73 = load double, ptr %72, align 8, !tbaa !75
  %74 = fmul nsz double %8, %73
  %75 = load double, ptr %27, align 8, !tbaa !75
  %76 = fmul nsz double %74, %75
  tail call void @llvm.memmove.p0.p0.i64(ptr nonnull align 8 %42, ptr align 8 %23, i64 %44, i1 false)
  store double %74, ptr %23, align 8, !tbaa !75
  %77 = fmul nsz double %45, %76
  %78 = fmul nsz double %46, %74
  %79 = tail call nsz double @llvm.fmuladd.f64(double %77, double %10, double %78)
  %80 = getelementptr inbounds nuw double, ptr %33, i64 %indvars.iv
  store double %79, ptr %80, align 8, !tbaa !75
  %indvars.iv.next = add nuw nsw i64 %indvars.iv, 1
  %81 = load i32, ptr %34, align 8, !tbaa !53
  %82 = sext i32 %81 to i64
  %83 = icmp slt i64 %indvars.iv.next, %82
  br i1 %83, label %.lr.ph77.split, label %._crit_edge78, !llvm.loop !200

._crit_edge78:                                    ; preds = %.lr.ph77.split, %._crit_edge.us, %4
  ret i32 0
}